target datalayout = "e-m:e-p270:32:32-p271:32:32-p272:64:64-i64:64-i128:128-f80:128-n8:16:32:64-S128"
target triple = "x86_64-pc-linux-gnu"

@H5_init_g = external global i8, align 1
@H5_libterm_g = external global i8, align 1
@.str = private unnamed_addr constant [102 x i8] c"generated/home/dtcxzyw/WorkSpace/Projects/compilers/llvm-opt-benchmark/bench/hdf5/hdf5/src/H5system.c\00", align 1
@H5E_BADVALUE_g = external global i64, align 8
@.str.4 = private unnamed_addr constant [2 x i8] c"/\00", align 1
@H5E_RESOURCE_g = external global i64, align 8
@__func__.H5_dirname = private unnamed_addr constant [11 x i8] c"H5_dirname\00", align 1
@H5E_ARGS_g = external global i64, align 8
@.str.8 = private unnamed_addr constant [19 x i8] c"path can't be NULL\00", align 1
@.str.9 = private unnamed_addr constant [22 x i8] c"dirname can't be NULL\00", align 1
@.str.10 = private unnamed_addr constant [2 x i8] c".\00", align 1
@H5E_CANTALLOC_g = external global i64, align 8
@.str.11 = private unnamed_addr constant [34 x i8] c"can't allocate buffer for dirname\00", align 1

; Function Attrs: nounwind uwtable
define i32 @H5_dirname(ptr noundef %0, ptr noundef %1) #0 {
  %3 = alloca ptr, align 8
  %4 = alloca ptr, align 8
  %5 = alloca ptr, align 8
  %6 = alloca ptr, align 8
  %7 = alloca i32, align 4
  %8 = alloca i8, align 1
  %9 = alloca i64, align 8
  store ptr %0, ptr %3, align 8, !tbaa !26
  store ptr %1, ptr %4, align 8, !tbaa !27
  call void @llvm.lifetime.start.p0(i64 8, ptr %5) #9
  call void @llvm.lifetime.start.p0(i64 8, ptr %6) #9
  store ptr null, ptr %6, align 8, !tbaa !26
  call void @llvm.lifetime.start.p0(i64 4, ptr %7) #9
  store i32 0, ptr %7, align 4, !tbaa !3
  call void @llvm.lifetime.start.p0(i64 1, ptr %8) #9
  store i8 0, ptr %8, align 1, !tbaa !19
  %10 = load i8, ptr @H5_init_g, align 1, !tbaa !19, !range !21, !noundef !22
  %11 = trunc i8 %10 to i1
  br i1 %11, label %16, label %12

12:                                               ; preds = %2
  %13 = load i8, ptr @H5_libterm_g, align 1, !tbaa !19, !range !21, !noundef !22
  %14 = trunc i8 %13 to i1
  %15 = xor i1 %14, true
  br label %16

16:                                               ; preds = %12, %2
  %17 = phi i1 [ true, %2 ], [ %15, %12 ]
  %18 = xor i1 %17, true
  %19 = xor i1 %18, true
  %20 = zext i1 %19 to i32
  %21 = sext i32 %20 to i64
  %22 = call i64 @llvm.expect.i64(i64 %21, i64 1)
  %23 = icmp ne i64 %22, 0
  br i1 %23, label %24, label %205

24:                                               ; preds = %16
  %25 = load ptr, ptr %3, align 8, !tbaa !26
  %26 = icmp ne ptr %25, null
  br i1 %26, label %46, label %27

27:                                               ; preds = %24
  br label %28

28:                                               ; preds = %27
  br label %29

29:                                               ; preds = %28
  br label %30

30:                                               ; preds = %29
  %31 = load i64, ptr @H5E_ARGS_g, align 8, !tbaa !18
  %32 = load i64, ptr @H5E_BADVALUE_g, align 8, !tbaa !18
  %33 = call i32 (ptr, ptr, i32, i64, i64, ptr, ...) @H5E_printf_stack(ptr noundef @.str, ptr noundef @__func__.H5_dirname, i32 noundef 997, i64 noundef %31, i64 noundef %32, ptr noundef @.str.8)
  br label %34

34:                                               ; preds = %30
  br label %35

35:                                               ; preds = %34
  store i8 1, ptr %8, align 1, !tbaa !19
  %36 = load i8, ptr %8, align 1, !tbaa !19, !range !21, !noundef !22
  %37 = trunc i8 %36 to i1
  %38 = zext i1 %37 to i8
  store i8 %38, ptr %8, align 1, !tbaa !19
  br label %39

39:                                               ; preds = %35
  br label %40

40:                                               ; preds = %39
  br label %41

41:                                               ; preds = %40
  store i32 -1, ptr %7, align 4, !tbaa !3
  br label %194

42:                                               ; No predecessors!
  br label %43

43:                                               ; preds = %42
  br label %44

44:                                               ; preds = %43
  br label %45

45:                                               ; preds = %44
  br label %46

46:                                               ; preds = %45, %24
  %47 = load ptr, ptr %4, align 8, !tbaa !27
  %48 = icmp ne ptr %47, null
  br i1 %48, label %68, label %49

49:                                               ; preds = %46
  br label %50

50:                                               ; preds = %49
  br label %51

51:                                               ; preds = %50
  br label %52

52:                                               ; preds = %51
  %53 = load i64, ptr @H5E_ARGS_g, align 8, !tbaa !18
  %54 = load i64, ptr @H5E_BADVALUE_g, align 8, !tbaa !18
  %55 = call i32 (ptr, ptr, i32, i64, i64, ptr, ...) @H5E_printf_stack(ptr noundef @.str, ptr noundef @__func__.H5_dirname, i32 noundef 999, i64 noundef %53, i64 noundef %54, ptr noundef @.str.9)
  br label %56

56:                                               ; preds = %52
  br label %57

57:                                               ; preds = %56
  store i8 1, ptr %8, align 1, !tbaa !19
  %58 = load i8, ptr %8, align 1, !tbaa !19, !range !21, !noundef !22
  %59 = trunc i8 %58 to i1
  %60 = zext i1 %59 to i8
  store i8 %60, ptr %8, align 1, !tbaa !19
  br label %61

61:                                               ; preds = %57
  br label %62

62:                                               ; preds = %61
  br label %63

63:                                               ; preds = %62
  store i32 -1, ptr %7, align 4, !tbaa !3
  br label %194

64:                                               ; No predecessors!
  br label %65

65:                                               ; preds = %64
  br label %66

66:                                               ; preds = %65
  br label %67

67:                                               ; preds = %66
  br label %68

68:                                               ; preds = %67, %46
  %69 = load ptr, ptr %3, align 8, !tbaa !26
  %70 = call ptr @strrchr(ptr noundef %69, i32 noundef 47) #11
  store ptr %70, ptr %5, align 8, !tbaa !26
  %71 = icmp eq ptr null, %70
  br i1 %71, label %72, label %74

72:                                               ; preds = %68
  %73 = call noalias ptr @H5MM_strdup(ptr noundef @.str.10)
  store ptr %73, ptr %6, align 8, !tbaa !26
  br label %169

74:                                               ; preds = %68
  %75 = load ptr, ptr %5, align 8, !tbaa !26
  %76 = load ptr, ptr %3, align 8, !tbaa !26
  %77 = icmp eq ptr %75, %76
  br i1 %77, label %78, label %80

78:                                               ; preds = %74
  %79 = call noalias ptr @H5MM_strdup(ptr noundef @.str.4)
  store ptr %79, ptr %6, align 8, !tbaa !26
  br label %168

80:                                               ; preds = %74
  %81 = load ptr, ptr %5, align 8, !tbaa !26
  %82 = getelementptr inbounds i8, ptr %81, i64 1
  %83 = load i8, ptr %82, align 1, !tbaa !29
  %84 = sext i8 %83 to i32
  %85 = icmp eq i32 %84, 0
  br i1 %85, label %86, label %132

86:                                               ; preds = %80
  br label %87

87:                                               ; preds = %99, %86
  %88 = load ptr, ptr %5, align 8, !tbaa !26
  %89 = load ptr, ptr %3, align 8, !tbaa !26
  %90 = icmp ne ptr %88, %89
  br i1 %90, label %91, label %97

91:                                               ; preds = %87
  %92 = load ptr, ptr %5, align 8, !tbaa !26
  %93 = getelementptr inbounds i8, ptr %92, i64 -1
  %94 = load i8, ptr %93, align 1, !tbaa !29
  %95 = sext i8 %94 to i32
  %96 = icmp eq i32 %95, 47
  br label %97

97:                                               ; preds = %91, %87
  %98 = phi i1 [ false, %87 ], [ %96, %91 ]
  br i1 %98, label %99, label %102

99:                                               ; preds = %97
  %100 = load ptr, ptr %5, align 8, !tbaa !26
  %101 = getelementptr inbounds i8, ptr %100, i32 -1
  store ptr %101, ptr %5, align 8, !tbaa !26
  br label %87, !llvm.loop !35

102:                                              ; preds = %97
  %103 = load ptr, ptr %5, align 8, !tbaa !26
  %104 = load ptr, ptr %3, align 8, !tbaa !26
  %105 = icmp eq ptr %103, %104
  br i1 %105, label %106, label %108

106:                                              ; preds = %102
  %107 = call noalias ptr @H5MM_strdup(ptr noundef @.str.4)
  store ptr %107, ptr %6, align 8, !tbaa !26
  store ptr null, ptr %5, align 8, !tbaa !26
  br label %131

108:                                              ; preds = %102
  br label %109

109:                                              ; preds = %121, %108
  %110 = load ptr, ptr %5, align 8, !tbaa !26
  %111 = load ptr, ptr %3, align 8, !tbaa !26
  %112 = icmp ne ptr %110, %111
  br i1 %112, label %113, label %119

113:                                              ; preds = %109
  %114 = load ptr, ptr %5, align 8, !tbaa !26
  %115 = getelementptr inbounds i8, ptr %114, i64 -1
  %116 = load i8, ptr %115, align 1, !tbaa !29
  %117 = sext i8 %116 to i32
  %118 = icmp ne i32 %117, 47
  br label %119

119:                                              ; preds = %113, %109
  %120 = phi i1 [ false, %109 ], [ %118, %113 ]
  br i1 %120, label %121, label %124

121:                                              ; preds = %119
  %122 = load ptr, ptr %5, align 8, !tbaa !26
  %123 = getelementptr inbounds i8, ptr %122, i32 -1
  store ptr %123, ptr %5, align 8, !tbaa !26
  br label %109, !llvm.loop !36

124:                                              ; preds = %119
  %125 = load ptr, ptr %5, align 8, !tbaa !26
  %126 = load ptr, ptr %3, align 8, !tbaa !26
  %127 = icmp eq ptr %125, %126
  br i1 %127, label %128, label %130

128:                                              ; preds = %124
  %129 = call noalias ptr @H5MM_strdup(ptr noundef @.str.10)
  store ptr %129, ptr %6, align 8, !tbaa !26
  store ptr null, ptr %5, align 8, !tbaa !26
  br label %130

130:                                              ; preds = %128, %124
  br label %131

131:                                              ; preds = %130, %106
  br label %132

132:                                              ; preds = %131, %80
  %133 = load ptr, ptr %5, align 8, !tbaa !26
  %134 = icmp ne ptr %133, null
  br i1 %134, label %135, label %167

135:                                              ; preds = %132
  call void @llvm.lifetime.start.p0(i64 8, ptr %9) #9
  br label %136

136:                                              ; preds = %148, %135
  %137 = load ptr, ptr %5, align 8, !tbaa !26
  %138 = load ptr, ptr %3, align 8, !tbaa !26
  %139 = icmp ne ptr %137, %138
  br i1 %139, label %140, label %146

140:                                              ; preds = %136
  %141 = load ptr, ptr %5, align 8, !tbaa !26
  %142 = getelementptr inbounds i8, ptr %141, i64 -1
  %143 = load i8, ptr %142, align 1, !tbaa !29
  %144 = sext i8 %143 to i32
  %145 = icmp eq i32 %144, 47
  br label %146

146:                                              ; preds = %140, %136
  %147 = phi i1 [ false, %136 ], [ %145, %140 ]
  br i1 %147, label %148, label %151

148:                                              ; preds = %146
  %149 = load ptr, ptr %5, align 8, !tbaa !26
  %150 = getelementptr inbounds i8, ptr %149, i32 -1
  store ptr %150, ptr %5, align 8, !tbaa !26
  br label %136, !llvm.loop !37

151:                                              ; preds = %146
  %152 = load ptr, ptr %5, align 8, !tbaa !26
  %153 = load ptr, ptr %3, align 8, !tbaa !26
  %154 = icmp eq ptr %152, %153
  br i1 %154, label %155, label %157

155:                                              ; preds = %151
  %156 = call noalias ptr @H5MM_strdup(ptr noundef @.str.4)
  store ptr %156, ptr %6, align 8, !tbaa !26
  br label %166

157:                                              ; preds = %151
  %158 = load ptr, ptr %5, align 8, !tbaa !26
  %159 = load ptr, ptr %3, align 8, !tbaa !26
  %160 = ptrtoint ptr %158 to i64
  %161 = ptrtoint ptr %159 to i64
  %162 = sub i64 %160, %161
  store i64 %162, ptr %9, align 8, !tbaa !18
  %163 = load ptr, ptr %3, align 8, !tbaa !26
  %164 = load i64, ptr %9, align 8, !tbaa !18
  %165 = call noalias ptr @H5MM_strndup(ptr noundef %163, i64 noundef %164)
  store ptr %165, ptr %6, align 8, !tbaa !26
  br label %166

166:                                              ; preds = %157, %155
  call void @llvm.lifetime.end.p0(i64 8, ptr %9) #9
  br label %167

167:                                              ; preds = %166, %132
  br label %168

168:                                              ; preds = %167, %78
  br label %169

169:                                              ; preds = %168, %72
  %170 = load ptr, ptr %6, align 8, !tbaa !26
  %171 = icmp eq ptr null, %170
  br i1 %171, label %172, label %191

172:                                              ; preds = %169
  br label %173

173:                                              ; preds = %172
  br label %174

174:                                              ; preds = %173
  br label %175

175:                                              ; preds = %174
  %176 = load i64, ptr @H5E_RESOURCE_g, align 8, !tbaa !18
  %177 = load i64, ptr @H5E_CANTALLOC_g, align 8, !tbaa !18
  %178 = call i32 (ptr, ptr, i32, i64, i64, ptr, ...) @H5E_printf_stack(ptr noundef @.str, ptr noundef @__func__.H5_dirname, i32 noundef 1062, i64 noundef %176, i64 noundef %177, ptr noundef @.str.11)
  br label %179

179:                                              ; preds = %175
  br label %180

180:                                              ; preds = %179
  store i8 1, ptr %8, align 1, !tbaa !19
  %181 = load i8, ptr %8, align 1, !tbaa !19, !range !21, !noundef !22
  %182 = trunc i8 %181 to i1
  %183 = zext i1 %182 to i8
  store i8 %183, ptr %8, align 1, !tbaa !19
  br label %184

184:                                              ; preds = %180
  br label %185

185:                                              ; preds = %184
  br label %186

186:                                              ; preds = %185
  store i32 -1, ptr %7, align 4, !tbaa !3
  br label %194

187:                                              ; No predecessors!
  br label %188

188:                                              ; preds = %187
  br label %189

189:                                              ; preds = %188
  br label %190

190:                                              ; preds = %189
  br label %191

191:                                              ; preds = %190, %169
  %192 = load ptr, ptr %6, align 8, !tbaa !26
  %193 = load ptr, ptr %4, align 8, !tbaa !27
  store ptr %192, ptr %193, align 8, !tbaa !26
  br label %194

194:                                              ; preds = %191, %186, %63, %41
  %195 = load i32, ptr %7, align 4, !tbaa !3
  %196 = icmp eq i32 -1, %195
  br i1 %196, label %197, label %204

197:                                              ; preds = %194
  %198 = load ptr, ptr %6, align 8, !tbaa !26
  call void @free(ptr noundef %198) #9
  %199 = load ptr, ptr %4, align 8, !tbaa !27
  %200 = icmp ne ptr %199, null
  br i1 %200, label %201, label %203

201:                                              ; preds = %197
  %202 = load ptr, ptr %4, align 8, !tbaa !27
  store ptr null, ptr %202, align 8, !tbaa !26
  br label %203

203:                                              ; preds = %201, %197
  br label %204

204:                                              ; preds = %203, %194
  br label %205

205:                                              ; preds = %204, %16
  %206 = load i32, ptr %7, align 4, !tbaa !3
  call void @llvm.lifetime.end.p0(i64 1, ptr %8) #9
  call void @llvm.lifetime.end.p0(i64 4, ptr %7) #9
  call void @llvm.lifetime.end.p0(i64 8, ptr %6) #9
  call void @llvm.lifetime.end.p0(i64 8, ptr %5) #9
  ret i32 %206
}