; Function Attrs: nounwind uwtable
define range(i32 -1, 1) i32 @H5_dirname(ptr noundef %0, ptr noundef writeonly captures(address_is_null) %1) local_unnamed_addr #0 {
  %3 = load i8, ptr @H5_init_g, align 1, !tbaa !11, !range !13, !noundef !14
  %4 = trunc nuw i8 %3 to i1
  %5 = load i8, ptr @H5_libterm_g, align 1, !range !13
  %6 = trunc nuw i8 %5 to i1
  %7 = xor i1 %6, true
  %8 = select i1 %4, i1 true, i1 %7
  br i1 %8, label %9, label %60, !prof !15

9:                                                ; preds = %2
  %.not = icmp eq ptr %0, null
  br i1 %.not, label %10, label %14

10:                                               ; preds = %9
  %11 = load i64, ptr @H5E_ARGS_g, align 8, !tbaa !16
  %12 = load i64, ptr @H5E_BADVALUE_g, align 8, !tbaa !16
  %13 = tail call i32 (ptr, ptr, i32, i64, i64, ptr, ...) @H5E_printf_stack(ptr noundef nonnull @.str, ptr noundef nonnull @__func__.H5_dirname, i32 noundef 997, i64 noundef %11, i64 noundef %12, ptr noundef nonnull @.str.8) #15
  br label %58

14:                                               ; preds = %9
  %.not53 = icmp eq ptr %1, null
  br i1 %.not53, label %.thread66, label %18

.thread66:                                        ; preds = %14
  %15 = load i64, ptr @H5E_ARGS_g, align 8, !tbaa !16
  %16 = load i64, ptr @H5E_BADVALUE_g, align 8, !tbaa !16
  %17 = tail call i32 (ptr, ptr, i32, i64, i64, ptr, ...) @H5E_printf_stack(ptr noundef nonnull @.str, ptr noundef nonnull @__func__.H5_dirname, i32 noundef 999, i64 noundef %15, i64 noundef %16, ptr noundef nonnull @.str.9) #15
  br label %60

18:                                               ; preds = %14
  %19 = tail call ptr @strrchr(ptr noundef nonnull dereferenceable(1) %0, i32 noundef 47) #17
  %20 = icmp eq ptr %19, null
  br i1 %20, label %21, label %23

21:                                               ; preds = %18
  %22 = tail call noalias ptr @H5MM_strdup(ptr noundef nonnull @.str.10) #15
  br label %.critedge2.thread60

23:                                               ; preds = %18
  %24 = icmp eq ptr %19, %0
  br i1 %24, label %25, label %27

25:                                               ; preds = %23
  %26 = tail call noalias ptr @H5MM_strdup(ptr noundef nonnull @.str.4) #15
  br label %.critedge2.thread60

27:                                               ; preds = %23
  %28 = getelementptr inbounds nuw i8, ptr %19, i64 1
  %29 = load i8, ptr %28, align 1, !tbaa !22
  %30 = icmp eq i8 %29, 0
  br i1 %30, label %.preheader, label %.critedge2.preheader

.critedge2.preheader:                             ; preds = %37, %27
  %.3.ph = phi ptr [ %19, %27 ], [ %.2, %37 ]
  br label %.critedge2

.preheader:                                       ; preds = %27, %31
  %.1 = phi ptr [ %32, %31 ], [ %19, %27 ]
  %.not54 = icmp eq ptr %.1, %0
  br i1 %.not54, label %35, label %31

31:                                               ; preds = %.preheader
  %32 = getelementptr inbounds i8, ptr %.1, i64 -1
  %33 = load i8, ptr %32, align 1, !tbaa !22
  %34 = icmp eq i8 %33, 47
  br i1 %34, label %.preheader, label %.critedge, !llvm.loop !29

35:                                               ; preds = %.preheader
  %36 = tail call noalias ptr @H5MM_strdup(ptr noundef nonnull @.str.4) #15
  br label %.critedge2.thread60

.critedge:                                        ; preds = %31, %37
  %.2 = phi ptr [ %38, %37 ], [ %.1, %31 ]
  %.not55 = icmp eq ptr %.2, %0
  br i1 %.not55, label %40, label %37

37:                                               ; preds = %.critedge
  %38 = getelementptr inbounds i8, ptr %.2, i64 -1
  %39 = load i8, ptr %38, align 1, !tbaa !22
  %.not56 = icmp eq i8 %39, 47
  br i1 %.not56, label %.critedge2.preheader, label %.critedge, !llvm.loop !30

40:                                               ; preds = %.critedge
  %41 = tail call noalias ptr @H5MM_strdup(ptr noundef nonnull @.str.10) #15
  br label %.critedge2.thread60

.critedge2:                                       ; preds = %.critedge2.preheader, %42
  %.3 = phi ptr [ %43, %42 ], [ %.3.ph, %.critedge2.preheader ]
  %.not58 = icmp eq ptr %.3, %0
  br i1 %.not58, label %46, label %42

42:                                               ; preds = %.critedge2
  %43 = getelementptr inbounds i8, ptr %.3, i64 -1
  %44 = load i8, ptr %43, align 1, !tbaa !22
  %45 = icmp eq i8 %44, 47
  br i1 %45, label %.critedge2, label %.critedge4, !llvm.loop !31

46:                                               ; preds = %.critedge2
  %47 = tail call noalias ptr @H5MM_strdup(ptr noundef nonnull @.str.4) #15
  br label %.critedge2.thread60

.critedge4:                                       ; preds = %42
  %48 = ptrtoint ptr %.3 to i64
  %49 = ptrtoint ptr %0 to i64
  %50 = sub i64 %48, %49
  %51 = tail call noalias ptr @H5MM_strndup(ptr noundef nonnull %0, i64 noundef %50) #15
  br label %.critedge2.thread60

.critedge2.thread60:                              ; preds = %40, %35, %46, %.critedge4, %25, %21
  %.146 = phi ptr [ %22, %21 ], [ %26, %25 ], [ %47, %46 ], [ %51, %.critedge4 ], [ %41, %40 ], [ %36, %35 ]
  %52 = icmp eq ptr %.146, null
  br i1 %52, label %53, label %57

53:                                               ; preds = %.critedge2.thread60
  %54 = load i64, ptr @H5E_RESOURCE_g, align 8, !tbaa !16
  %55 = load i64, ptr @H5E_CANTALLOC_g, align 8, !tbaa !16
  %56 = tail call i32 (ptr, ptr, i32, i64, i64, ptr, ...) @H5E_printf_stack(ptr noundef nonnull @.str, ptr noundef nonnull @__func__.H5_dirname, i32 noundef 1062, i64 noundef %54, i64 noundef %55, ptr noundef nonnull @.str.11) #15
  br label %58

57:                                               ; preds = %.critedge2.thread60
  store ptr %.146, ptr %1, align 8, !tbaa !21
  br label %60

58:                                               ; preds = %53, %10
  %.not59 = icmp eq ptr %1, null
  br i1 %.not59, label %60, label %59

59:                                               ; preds = %58
  store ptr null, ptr %1, align 8, !tbaa !21
  br label %60

60:                                               ; preds = %.thread66, %57, %59, %58, %2
  %.043 = phi i32 [ -1, %59 ], [ -1, %58 ], [ 0, %57 ], [ 0, %2 ], [ -1, %.thread66 ]
  ret i32 %.043
}